target datalayout = "e-m:e-p270:32:32-p271:32:32-p272:64:64-i64:64-i128:128-f80:128-n8:16:32:64-S128"
target triple = "x86_64-pc-linux-gnu"

%struct.__va_list_tag = type { i32, i32, ptr, ptr }

@die_routine = internal global ptr @die_builtin, align 8
@die_is_recursing = internal global ptr @die_is_recursing_builtin, align 8
@stderr = external global ptr, align 8
@.str.3 = private unnamed_addr constant [8 x i8] c"usage.c\00", align 1
@.str.4 = private unnamed_addr constant [48 x i8] c"fatal: recursion detected in die_errno handler\0A\00", align 1

; Function Attrs: noreturn nounwind uwtable
define dso_local void @die_errno(ptr noundef %0, ...) #1 {
  %2 = alloca ptr, align 8
  %3 = alloca [1024 x i8], align 16
  %4 = alloca [1 x %struct.__va_list_tag], align 16
  store ptr %0, ptr %2, align 8, !tbaa !8
  call void @llvm.lifetime.start.p0(i64 1024, ptr %3) #11
  call void @llvm.lifetime.start.p0(i64 24, ptr %4) #11
  %5 = load ptr, ptr @die_is_recursing, align 8, !tbaa !4
  %6 = call i32 %5()
  %7 = icmp ne i32 %6, 0
  br i1 %7, label %8, label %12

8:                                                ; preds = %1
  %9 = load ptr, ptr @stderr, align 8, !tbaa !14
  %10 = call i32 @fputs(ptr noundef @.str.4, ptr noundef %9)
  %11 = call i32 @common_exit(ptr noundef @.str.3, i32 noundef 243, i32 noundef 128)
  call void @exit(i32 noundef %11) #14
  unreachable

12:                                               ; preds = %1
  %13 = getelementptr inbounds [1 x %struct.__va_list_tag], ptr %4, i64 0, i64 0
  call void @llvm.va_start.p0(ptr %13)
  %14 = load ptr, ptr @die_routine, align 8, !tbaa !4
  %15 = getelementptr inbounds [1024 x i8], ptr %3, i64 0, i64 0
  %16 = load ptr, ptr %2, align 8, !tbaa !8
  %17 = call ptr @fmt_with_err(ptr noundef %15, i32 noundef 1024, ptr noundef %16)
  %18 = getelementptr inbounds [1 x %struct.__va_list_tag], ptr %4, i64 0, i64 0
  call void %14(ptr noundef %17, ptr noundef %18) #12
  unreachable
}