; Function Attrs: noreturn nounwind uwtable
define dso_local void @die_errno(ptr noundef %0, ...) local_unnamed_addr #3 {
  %2 = alloca [1024 x i8], align 16
  %3 = alloca [1 x %struct.__va_list_tag], align 16
  call void @llvm.lifetime.start.p0(i64 1024, ptr nonnull %2) #17
  call void @llvm.lifetime.start.p0(i64 24, ptr nonnull %3) #17
  %4 = load ptr, ptr @die_is_recursing, align 8, !tbaa !4
  %5 = tail call i32 %4() #17
  %.not = icmp eq i32 %5, 0
  br i1 %.not, label %10, label %6

6:                                                ; preds = %1
  %7 = load ptr, ptr @stderr, align 8, !tbaa !10
  %8 = tail call i64 @fwrite(ptr nonnull @.str.4, i64 47, i64 1, ptr %7) #20
  %9 = tail call i32 @common_exit(ptr noundef nonnull @.str.3, i32 noundef 243, i32 noundef 128) #17
  tail call void @exit(i32 noundef %9) #19
  unreachable

10:                                               ; preds = %1
  call void @llvm.va_start.p0(ptr nonnull %3)
  %11 = load ptr, ptr @die_routine, align 8, !tbaa !4
  %12 = call fastcc ptr @fmt_with_err(ptr noundef %2, ptr noundef %0)
  call void %11(ptr noundef nonnull %2, ptr noundef nonnull %3) #19
  unreachable
}